; ModuleID = '57/1550.c'
source_filename = "57/1550.c"
target datalayout = "e-m:e-p270:32:32-p271:32:32-p272:64:64-i64:64-f80:128-n8:16:32:64-S128"
target triple = "x86_64-pc-linux-gnu"

@.str = private unnamed_addr constant [3 x i8] c"%d\00", align 1
@.str.1 = private unnamed_addr constant [3 x i8] c"%s\00", align 1
@.str.2 = private unnamed_addr constant [4 x i8] c"%s\0A\00", align 1

; Function Attrs: noinline nounwind uwtable
define dso_local i32 @main() #0 {
  %1 = alloca i32, align 4
  %2 = alloca i32, align 4
  %3 = alloca i32, align 4
  %4 = alloca i32, align 4
  %5 = alloca [50 x [100 x i8]], align 16
  %6 = alloca i8*, align 8
  store i32 0, i32* %1, align 4
  %7 = call i32 (i8*, ...) @__isoc99_scanf(i8* getelementptr inbounds ([3 x i8], [3 x i8]* @.str, i64 0, i64 0), i32* %2)
  store i32 0, i32* %3, align 4
  br label %8

8:                                                ; preds = %17, %0
  %9 = load i32, i32* %3, align 4
  %10 = load i32, i32* %2, align 4
  %11 = icmp slt i32 %9, %10
  br i1 %11, label %12, label %20

12:                                               ; preds = %8
  %13 = load i32, i32* %3, align 4
  %14 = sext i32 %13 to i64
  %15 = getelementptr inbounds [50 x [100 x i8]], [50 x [100 x i8]]* %5, i64 0, i64 %14
  %16 = call i32 (i8*, ...) @__isoc99_scanf(i8* getelementptr inbounds ([3 x i8], [3 x i8]* @.str.1, i64 0, i64 0), [100 x i8]* %15)
  br label %17

17:                                               ; preds = %12
  %18 = load i32, i32* %3, align 4
  %19 = add nsw i32 %18, 1
  store i32 %19, i32* %3, align 4
  br label %8

20:                                               ; preds = %8
  store i32 0, i32* %3, align 4
  br label %21

21:                                               ; preds = %105, %20
  %22 = load i32, i32* %3, align 4
  %23 = load i32, i32* %2, align 4
  %24 = icmp slt i32 %22, %23
  br i1 %24, label %25, label %108

25:                                               ; preds = %21
  %26 = load i32, i32* %3, align 4
  %27 = sext i32 %26 to i64
  %28 = getelementptr inbounds [50 x [100 x i8]], [50 x [100 x i8]]* %5, i64 0, i64 %27
  %29 = getelementptr inbounds [100 x i8], [100 x i8]* %28, i64 0, i64 0
  store i8* %29, i8** %6, align 8
  br label %30

30:                                               ; preds = %101, %25
  %31 = load i8*, i8** %6, align 8
  %32 = load i8, i8* %31, align 1
  %33 = sext i8 %32 to i32
  %34 = icmp ne i32 %33, 0
  br i1 %34, label %35, label %104

35:                                               ; preds = %30
  %36 = load i8*, i8** %6, align 8
  %37 = load i8, i8* %36, align 1
  %38 = sext i8 %37 to i32
  %39 = icmp eq i32 %38, 101
  br i1 %39, label %40, label %54

40:                                               ; preds = %35
  %41 = load i8*, i8** %6, align 8
  %42 = getelementptr inbounds i8, i8* %41, i64 1
  %43 = load i8, i8* %42, align 1
  %44 = sext i8 %43 to i32
  %45 = icmp eq i32 %44, 114
  br i1 %45, label %46, label %54

46:                                               ; preds = %40
  %47 = load i8*, i8** %6, align 8
  %48 = getelementptr inbounds i8, i8* %47, i64 2
  %49 = load i8, i8* %48, align 1
  %50 = sext i8 %49 to i32
  %51 = icmp eq i32 %50, 0
  br i1 %51, label %52, label %54

52:                                               ; preds = %46
  %53 = load i8*, i8** %6, align 8
  store i8 0, i8* %53, align 1
  br label %100

54:                                               ; preds = %46, %40, %35
  %55 = load i8*, i8** %6, align 8
  %56 = load i8, i8* %55, align 1
  %57 = sext i8 %56 to i32
  %58 = icmp eq i32 %57, 108
  br i1 %58, label %59, label %73

59:                                               ; preds = %54
  %60 = load i8*, i8** %6, align 8
  %61 = getelementptr inbounds i8, i8* %60, i64 1
  %62 = load i8, i8* %61, align 1
  %63 = sext i8 %62 to i32
  %64 = icmp eq i32 %63, 121
  br i1 %64, label %65, label %73

65:                                               ; preds = %59
  %66 = load i8*, i8** %6, align 8
  %67 = getelementptr inbounds i8, i8* %66, i64 2
  %68 = load i8, i8* %67, align 1
  %69 = sext i8 %68 to i32
  %70 = icmp eq i32 %69, 0
  br i1 %70, label %71, label %73

71:                                               ; preds = %65
  %72 = load i8*, i8** %6, align 8
  store i8 0, i8* %72, align 1
  br label %99

73:                                               ; preds = %65, %59, %54
  %74 = load i8*, i8** %6, align 8
  %75 = load i8, i8* %74, align 1
  %76 = sext i8 %75 to i32
  %77 = icmp eq i32 %76, 105
  br i1 %77, label %78, label %98

78:                                               ; preds = %73
  %79 = load i8*, i8** %6, align 8
  %80 = getelementptr inbounds i8, i8* %79, i64 1
  %81 = load i8, i8* %80, align 1
  %82 = sext i8 %81 to i32
  %83 = icmp eq i32 %82, 110
  br i1 %83, label %84, label %98

84:                                               ; preds = %78
  %85 = load i8*, i8** %6, align 8
  %86 = getelementptr inbounds i8, i8* %85, i64 2
  %87 = load i8, i8* %86, align 1
  %88 = sext i8 %87 to i32
  %89 = icmp eq i32 %88, 103
  br i1 %89, label %90, label %98

90:                                               ; preds = %84
  %91 = load i8*, i8** %6, align 8
  %92 = getelementptr inbounds i8, i8* %91, i64 3
  %93 = load i8, i8* %92, align 1
  %94 = sext i8 %93 to i32
  %95 = icmp eq i32 %94, 0
  br i1 %95, label %96, label %98

96:                                               ; preds = %90
  %97 = load i8*, i8** %6, align 8
  store i8 0, i8* %97, align 1
  br label %98

98:                                               ; preds = %96, %90, %84, %78, %73
  br label %99

99:                                               ; preds = %98, %71
  br label %100

100:                                              ; preds = %99, %52
  br label %101

101:                                              ; preds = %100
  %102 = load i8*, i8** %6, align 8
  %103 = getelementptr inbounds i8, i8* %102, i32 1
  store i8* %103, i8** %6, align 8
  br label %30

104:                                              ; preds = %30
  br label %105

105:                                              ; preds = %104
  %106 = load i32, i32* %3, align 4
  %107 = add nsw i32 %106, 1
  store i32 %107, i32* %3, align 4
  br label %21

108:                                              ; preds = %21
  store i32 0, i32* %3, align 4
  br label %109

109:                                              ; preds = %119, %108
  %110 = load i32, i32* %3, align 4
  %111 = load i32, i32* %2, align 4
  %112 = icmp slt i32 %110, %111
  br i1 %112, label %113, label %122

113:                                              ; preds = %109
  %114 = load i32, i32* %3, align 4
  %115 = sext i32 %114 to i64
  %116 = getelementptr inbounds [50 x [100 x i8]], [50 x [100 x i8]]* %5, i64 0, i64 %115
  %117 = getelementptr inbounds [100 x i8], [100 x i8]* %116, i64 0, i64 0
  %118 = call i32 (i8*, ...) @printf(i8* getelementptr inbounds ([4 x i8], [4 x i8]* @.str.2, i64 0, i64 0), i8* %117)
  br label %119

119:                                              ; preds = %113
  %120 = load i32, i32* %3, align 4
  %121 = add nsw i32 %120, 1
  store i32 %121, i32* %3, align 4
  br label %109

122:                                              ; preds = %109
  ret i32 0
}

declare dso_local i32 @__isoc99_scanf(i8*, ...) #1

declare dso_local i32 @printf(i8*, ...) #1


!llvm.module.flags = !{!0}
!llvm.ident = !{!1}

!0 = !{i32 1, !"wchar_size", i32 4}
!1 = !{!"clang version 10.0.0-4ubuntu1 "}
